00000001	0000DCB0	0000	0008091E	_ZN2fz10async_task4joinEv
00000002	0000DD60	0001	00080938	_ZN2fz10async_task6detachEv
00000003	0000DDD0	0002	00080954	_ZN2fz10async_taskC1EOS0_
00000004	0000DDD0	0003	0008096E	_ZN2fz10async_taskC2EOS0_
00000005	0000DDE0	0004	00080988	_ZN2fz10async_taskD1Ev
00000006	0000DDE0	0005	0008099F	_ZN2fz10async_taskD2Ev
00000007	0000DDF0	0006	000809B6	_ZN2fz10async_taskaSEOS0_
00000008	0000DE00	0007	000809D0	_ZN2fz10create_jwkEv
00000009	0000E6C0	0008	000809E5	_ZN2fz10event_loop10send_eventEPNS_13event_handlerEPNS_10event_baseE
0000000A	0000E9B0	0009	00080A2A	_ZN2fz10event_loop10stop_timerEy
0000000B	0000EA40	000A	00080A4B	_ZN2fz10event_loop13filter_eventsERKSt8functionIFbRSt4pairIPNS_13event_handlerEPNS_10event_baseEEEE
0000000C	0000EE50	000B	00080AAF	_ZN2fz10event_loop13process_eventERNS_11scoped_lockE
0000000D	0000EF20	000C	00080AE4	_ZN2fz10event_loop14process_timersERNS_11scoped_lockERNS_15monotonic_clockE
0000000E	0000F090	000D	00080B30	_ZN2fz10event_loop14remove_handlerEPNS_13event_handlerE
0000000F	0000F6D0	000E	00080B68	_ZN2fz10event_loop3runEv
00000010	0000F700	000F	00080B81	_ZN2fz10event_loop4stopEb
00000011	0000F8C0	0010	00080B9B	_ZN2fz10event_loop5entryEv
00000012	0000F9E0	0011	00080BB6	_ZN2fz10event_loop9add_timerEPNS_13event_handlerERKNS_8durationEb
00000013	0000FB40	0012	00080BF8	_ZN2fz10event_loopC1ENS0_11loop_optionE
00000014	0000FC70	0013	00080C20	_ZN2fz10event_loopC1ERNS_11thread_poolE
00000015	0000FEB0	0014	00080C48	_ZN2fz10event_loopC1Ev
00000016	0000FB40	0015	00080C5F	_ZN2fz10event_loopC2ENS0_11loop_optionE
00000017	0000FC70	0016	00080C87	_ZN2fz10event_loopC2ERNS_11thread_poolE
00000018	0000FEB0	0017	00080CAF	_ZN2fz10event_loopC2Ev
00000019	00010090	0018	00080CC6	_ZN2fz10event_loopD1Ev
0000001A	00010090	0019	00080CDD	_ZN2fz10event_loopD2Ev
0000001B	00010150	001A	00080CF4	_ZN2fz10public_key11from_base64ERKSt17basic_string_viewIcSt11char_traitsIcEE
0000001C	00010240	001B	00080D41	_ZN2fz10public_key11from_base64ERKSt17basic_string_viewIwSt11char_traitsIwEE
0000001D	00010330	001C	00080D8E	_ZN2fz10remove_dirERKNSt7__cxx1112basic_stringIwSt11char_traitsIwESaIwEEE
0000001E	000103A0	001D	00080DD8	_ZN2fz10to_wstringB5cxx11ERKSt17basic_string_viewIcSt11char_traitsIcEE
0000001F	00010460	001E	00080E1F	_ZN2fz10to_wstringB5cxx11ERKSt17basic_string_viewIwSt11char_traitsIwEE
00000020	00010540	001F	00080E66	_ZN2fz11bucket_base13remove_bucketEv
00000021	000106E0	0020	00080E8B	_ZN2fz11bucket_base17set_mgr_recursiveEPNS_18rate_limit_managerE
00000022	00010710	0021	00080ECC	_ZN2fz11get_versionB5cxx11Ev
00000023	000107A0	0022	00080EE9	_ZN2fz11hmac_sha256ERKSt17basic_string_viewIcSt11char_traitsIcEERKSt6vectorIhSaIhEE
00000024	000107C0	0023	00080F3D	_ZN2fz11hmac_sha256ERKSt17basic_string_viewIcSt11char_traitsIcEES5_
00000025	000107E0	0024	00080F81	_ZN2fz11hmac_sha256ERKSt6vectorIhSaIhEERKSt17basic_string_viewIcSt11char_traitsIcEE
00000026	00010800	0025	00080FD5	_ZN2fz11hmac_sha256ERKSt6vectorIhSaIhEES4_
00000027	00010820	0026	00081000	_ZN2fz11private_key11from_base64ERKSt17basic_string_viewIcSt11char_traitsIcEE
00000028	00010920	0027	0008104E	_ZN2fz11private_key13from_passwordERKSt6vectorIhSaIhEES5_j
00000029	00010AA0	0028	00081089	_ZN2fz11private_key8generateEv
0000002A	00010C10	0029	000810A8	_ZN2fz11remove_fileERKNSt7__cxx1112basic_stringIwSt11char_traitsIwESaIwEEE
0000002B	00010C50	002A	000810F3	_ZN2fz11rename_fileERKNSt7__cxx1112basic_stringIwSt11char_traitsIwESaIwEEES7_b
0000002C	00010CE0	002B	00081142	_ZN2fz11socket_base13detach_threadERNS_11scoped_lockE
0000002D	00010F70	002C	00081178	_ZN2fz11socket_base16set_buffer_sizesEii
0000002E	00011030	002D	000811A1	_ZN2fz11socket_base17address_to_stringB5cxx11EPK8sockaddribb
0000002F	000116F0	002E	000811DE	_ZN2fz11socket_base17address_to_stringB5cxx11EPKci
00000030	000117A0	002F	00081211	_ZN2fz11socket_base4bindERKNSt7__cxx1112basic_stringIcSt11char_traitsIcESaIcEEE
00000031	00011820	0030	00081261	_ZN2fz11socket_base5closeEv
00000032	000119D0	0031	0008127D	_ZN2fz11socket_baseC1ERNS_11thread_poolEPNS_13event_handlerEPNS_19socket_event_sourceE
00000033	000119D0	0032	000812D4	_ZN2fz11socket_baseC2ERNS_11thread_poolEPNS_13event_handlerEPNS_19socket_event_sourceE
00000034	00011BB0	0033	0008132B	_ZN2fz11strtok_viewERKSt17basic_string_viewIcSt11char_traitsIcEES5_b
00000035	00011BD0	0034	00081370	_ZN2fz11strtok_viewERKSt17basic_string_viewIcSt11char_traitsIcEEcb
00000036	00011C10	0035	000813B3	_ZN2fz11strtok_viewERKSt17basic_string_viewIwSt11char_traitsIwEES5_b
00000037	00011C30	0036	000813F8	_ZN2fz11strtok_viewERKSt17basic_string_viewIwSt11char_traitsIwEEwb
00000038	00011C70	0037	0008143B	_ZN2fz11thread_pool5spawnERKSt8functionIFvvEE
00000039	00011F80	0038	00081469	_ZN2fz11thread_poolC1Ev
0000003A	00011F80	0039	00081481	_ZN2fz11thread_poolC2Ev
0000003B	00011FF0	003A	00081499	_ZN2fz11thread_poolD1Ev
0000003C	00011FF0	003B	000814B1	_ZN2fz11thread_poolD2Ev
0000003D	0001B400	003C	000814C9	_ZN2fz12query_string3setERKSt17basic_string_viewIcSt11char_traitsIcEE
0000003E	0001BA10	003D	0008150F	_ZN2fz12query_string6removeERKNSt7__cxx1112basic_stringIcSt11char_traitsIcESaIcEEE
0000003F	0001BC20	003E	00081562	_ZN2fz12query_stringC1ERKSt16initializer_listISt4pairINSt7__cxx1112basic_stringIcSt11char_traitsIcESaIcEEES8_EE
00000040	0001BE30	003F	000815D2	_ZN2fz12query_stringC1ERKSt17basic_string_viewIcSt11char_traitsIcEE
00000041	0001BE80	0040	00081616	_ZN2fz12query_stringC1ERKSt4pairINSt7__cxx1112basic_stringIcSt11char_traitsIcESaIcEEES7_E
00000042	0001BC20	0041	00081670	_ZN2fz12query_stringC2ERKSt16initializer_listISt4pairINSt7__cxx1112basic_stringIcSt11char_traitsIcESaIcEEES8_EE
00000043	0001BE30	0042	000816E0	_ZN2fz12query_stringC2ERKSt17basic_string_viewIcSt11char_traitsIcEE
00000044	0001BE80	0043	00081724	_ZN2fz12query_stringC2ERKSt4pairINSt7__cxx1112basic_stringIcSt11char_traitsIcESaIcEEES7_E
00000045	0001BEF0	0044	0008177E	_ZN2fz12query_stringixERKNSt7__cxx1112basic_stringIcSt11char_traitsIcESaIcEEE
00000046	0001C050	0045	000817CC	_ZN2fz12random_bytesEy
00000047	0001C140	0046	000817E3	_ZN2fz12random_bytesEyPh
00000048	0001C380	0047	000817FC	_ZN2fz12rate_limiter10add_tokensENS_9direction4typeEyy
00000049	0001C6C0	0048	00081833	_ZN2fz12rate_limiter10set_limitsEyy
0000004A	0001C7B0	0049	00081857	_ZN2fz12rate_limiter11unlock_treeEv
0000004B	0001C800	004A	0008187B	_ZN2fz12rate_limiter12do_set_limitENS_9direction4typeEy
0000004C	0001C870	004B	000818B3	_ZN2fz12rate_limiter12update_statsERb
0000004D	0001C950	004C	000818D9	_ZN2fz12rate_limiter17set_mgr_recursiveEPNS_18rate_limit_managerE
0000004E	0001C9A0	004D	0008191B	_ZN2fz12rate_limiter19distribute_overflowENS_9direction4typeEy
0000004F	0001CC00	004E	0008195A	_ZN2fz12rate_limiter26gather_unspent_for_removalEv
00000050	0001CD10	004F	0008198D	_ZN2fz12rate_limiter3addEPNS_11bucket_baseE
00000051	0001CEE0	0050	000819B9	_ZN2fz12rate_limiter5limitENS_9direction4typeE
00000052	0001CF30	0051	000819E8	_ZN2fz12rate_limiter8pay_debtENS_9direction4typeE
00000053	0001CFA0	0052	00081A1A	_ZN2fz12rate_limiter9lock_treeEv
00000054	0001CFE0	0053	00081A3B	_ZN2fz12rate_limiterC1EPNS_18rate_limit_managerE
00000055	0001CFE0	0054	00081A6C	_ZN2fz12rate_limiterC2EPNS_18rate_limit_managerE
00000056	0001D150	0055	00081A9D	_ZN2fz12rate_limiterD0Ev
00000057	0001D180	0056	00081AB6	_ZN2fz12rate_limiterD1Ev
00000058	0001D180	0057	00081ACF	_ZN2fz12rate_limiterD2Ev
00000059	0001D730	0058	00081AE8	_ZN2fz12socket_layer13shutdown_readEv
0000005A	0001D740	0059	00081B0E	_ZN2fz12socket_layer17set_event_handlerEPNS_13event_handlerENS_17socket_event_flagE
0000005B	0001D7A0	005A	00081B62	_ZN2fz12socket_layer20forward_socket_eventEPNS_19socket_event_sourceENS_17socket_event_flagEi
0000005C	0001D7E0	005B	00081BC0	_ZN2fz12socket_layer21set_event_passthroughENS_17socket_event_flagE
0000005D	0001D800	005C	00081C04	_ZN2fz12socket_layer25forward_hostaddress_eventEPNS_19socket_event_sourceERKNSt7__cxx1112basic_stringIcSt11char_traitsIcESaIcEEE
0000005E	0001D8D0	005D	00081C85	_ZN2fz12socket_layerC1EPNS_13event_handlerERNS_16socket_interfaceEb
0000005F	0001D8D0	005E	00081CC9	_ZN2fz12socket_layerC2EPNS_13event_handlerERNS_16socket_interfaceEb
00000060	0001D920	005F	00081D0D	_ZN2fz12socket_layerD0Ev
00000061	0001D970	0060	00081D26	_ZN2fz12socket_layerD1Ev
00000062	0001D970	0061	00081D3F	_ZN2fz12socket_layerD2Ev
00000063	0001D9B0	0062	00081D58	_ZN2fz13base32_decodeERKSt17basic_string_viewIcSt11char_traitsIcEENS_11base32_typeE
00000064	0001D9D0	0063	00081DAC	_ZN2fz13base32_decodeERKSt17basic_string_viewIwSt11char_traitsIwEENS_11base32_typeE
00000065	0001D9F0	0064	00081E00	_ZN2fz13base32_encodeB5cxx11ERKSt17basic_string_viewIcSt11char_traitsIcEENS_11base32_typeEb
00000066	0001E560	0065	00081E5C	_ZN2fz13base32_encodeB5cxx11ERKSt6vectorIhSaIhEENS_11base32_typeEb
00000067	0001F0D0	0066	00081E9F	_ZN2fz13base64_decodeERKSt17basic_string_viewIcSt11char_traitsIcEE
00000068	0001F0F0	0067	00081EE2	_ZN2fz13base64_decodeERKSt17basic_string_viewIwSt11char_traitsIwEE
00000069	0001F110	0068	00081F25	_ZN2fz13base64_encodeB5cxx11ERKSt17basic_string_viewIcSt11char_traitsIcEENS_11base64_typeEb
0000006A	0001F160	0069	00081F81	_ZN2fz13base64_encodeB5cxx11ERKSt6vectorIhSaIhEENS_11base64_typeEb
0000006B	0001F760	006A	00081FC4	_ZN2fz13event_handler10stop_timerEy
0000006C	0001F770	006B	00081FE8	_ZN2fz13event_handler14remove_handlerEv
0000006D	0001F780	006C	00082010	_ZN2fz13event_handler9add_timerERKNS_8durationEb
0000006E	0001F7A0	006D	00082041	_ZN2fz13event_handlerC1ERKS0_
0000006F	0001F7C0	006E	0008205F	_ZN2fz13event_handlerC1ERNS_10event_loopE
00000070	0001F7A0	006F	00082089	_ZN2fz13event_handlerC2ERKS0_
00000071	0001F7C0	0070	000820A7	_ZN2fz13event_handlerC2ERNS_10event_loopE
00000072	0001F7E0	0071	000820D1	_ZN2fz13event_handlerD0Ev
00000073	0001F830	0072	000820EB	_ZN2fz13event_handlerD1Ev
00000074	0001F830	0073	00082105	_ZN2fz13event_handlerD2Ev
00000075	0001F870	0074	0008211F	_ZN2fz13listen_socket11fast_acceptERi
00000076	0001F9B0	0075	00082145	_ZN2fz13listen_socket17set_event_handlerEPNS_13event_handlerE
00000077	0001FA40	0076	00082183	_ZN2fz13listen_socket6acceptERiPNS_13event_handlerE
00000078	0001FB00	0077	000821B7	_ZN2fz13listen_socket6listenENS_12address_typeEi
00000079	0001FF00	0078	000821E8	_ZN2fz13listen_socketC1ERNS_11thread_poolEPNS_13event_handlerE
0000007A	0001FF00	0079	00082227	_ZN2fz13listen_socketC2ERNS_11thread_poolEPNS_13event_handlerE
0000007B	0001FF40	007A	00082266	_ZN2fz13listen_socketD0Ev
0000007C	0001FF70	007B	00082280	_ZN2fz13listen_socketD1Ev
0000007D	0001FF70	007C	0008229A	_ZN2fz13listen_socketD2Ev
0000007E	00020000	007D	000822B4	_ZN2fz13local_filesys12check_bufferEv
0000007F	00020030	007E	000822DA	_ZN2fz13local_filesys13get_file_infoERKNSt7__cxx1112basic_stringIwSt11char_traitsIwESaIwEEERbPxPNS_8datetimeEPib
00000080	00020250	007F	0008234B	_ZN2fz13local_filesys13get_file_typeERKNSt7__cxx1112basic_stringIwSt11char_traitsIwESaIwEEEb
00000081	00020410	0080	000823A8	_ZN2fz13local_filesys13get_next_fileERNSt7__cxx1112basic_stringIwSt11char_traitsIwESaIwEEE
00000082	000205D0	0081	00082403	_ZN2fz13local_filesys13get_next_fileERNSt7__cxx1112basic_stringIwSt11char_traitsIwESaIwEEERbRNS0_4typeEPxPNS_8datetimeEPi
00000083	00020AB0	0082	0008247D	_ZN2fz13local_filesys14end_find_filesEv
00000084	000707C0	0083	000824A5	_ZN2fz13local_filesys14path_separatorE
00000085	00020AF0	0084	000824CC	_ZN2fz13local_filesys15get_link_targetERKNSt7__cxx1112basic_stringIwSt11char_traitsIwESaIwEEE
00000086	00020BD0	0085	0008252A	_ZN2fz13local_filesys16begin_find_filesENSt7__cxx1112basic_stringIwSt11char_traitsIwESaIwEEEbb
00000087	00020DA0	0086	00082589	_ZN2fz13local_filesys16begin_find_filesEPvbb
00000088	00020E70	0087	000825B6	_ZN2fz13local_filesys21get_modification_timeERKNSt7__cxx1112basic_stringIwSt11char_traitsIwESaIwEEE
00000089	00020ED0	0088	0008261A	_ZN2fz13local_filesys21set_modification_timeERKNSt7__cxx1112basic_stringIwSt11char_traitsIwESaIwEEERKNS_8datetimeE
0000008A	00020F80	0089	0008268D	_ZN2fz13local_filesys8get_sizeERKNSt7__cxx1112basic_stringIwSt11char_traitsIwESaIwEEEPb
0000008B	00020FD0	008A	000826E5	_ZN2fz13local_filesysC1EOS0_
0000008C	00020FD0	008B	00082702	_ZN2fz13local_filesysC2EOS0_
0000008D	00021090	008C	0008271F	_ZN2fz13local_filesysD1Ev
0000008E	00021090	008D	00082739	_ZN2fz13local_filesysD2Ev
0000008F	000210F0	008E	00082753	_ZN2fz13local_filesysaSEOS0_
00000090	000211E0	008F	00082770	_ZN2fz13random_numberExx
00000091	00022760	0090	00082789	_ZN2fz13symmetric_key11decrypt_keyERKSt6vectorIhSaIhEERKNS_11private_keyE
00000092	00022880	0091	000827D3	_ZN2fz13symmetric_key11encrypt_keyERKNS_10public_keyE
00000093	000229E0	0092	00082809	_ZN2fz13symmetric_key11from_base64ERKSt17basic_string_viewIcSt11char_traitsIcEE
00000094	00022AD0	0093	00082859	_ZN2fz13symmetric_key11from_base64ERKSt17basic_string_viewIwSt11char_traitsIwEE
00000095	00022BC0	0094	000828A9	_ZN2fz13symmetric_key13from_passwordERKSt6vectorIhSaIhEES5_j
00000096	00022D30	0095	000828E6	_ZN2fz13symmetric_key19encryption_overheadEv
00000097	00022D40	0096	00082913	_ZN2fz13symmetric_key8generateEv
00000098	00022E90	0097	00082934	_ZN2fz13tolower_asciiIwEET_S1_
00000099	00022EC0	0098	00082953	_ZN2fz13toupper_asciiIwEET_S1_
0000009A	00022EF0	0099	00082972	_ZN2fz14percent_decodeERKSt17basic_string_viewIcSt11char_traitsIcEEb
0000009B	00023130	009A	000829B7	_ZN2fz14percent_decodeERKSt17basic_string_viewIwSt11char_traitsIwEEb
0000009C	00023380	009B	000829FC	_ZN2fz14percent_encodeB5cxx11ERKSt17basic_string_viewIcSt11char_traitsIcEEb
0000009D	00023660	009C	00082A48	_ZN2fz14percent_encodeB5cxx11ERKSt17basic_string_viewIwSt11char_traitsIwEEb
0000009E	000236E0	009D	00082A94	_ZN2fz14thread_invokerC1ERNS_10event_loopE
0000009F	000236E0	009E	00082ABF	_ZN2fz14thread_invokerC2ERNS_10event_loopE
000000A0	00023700	009F	00082AEA	_ZN2fz14thread_invokerD0Ev
000000A1	00023740	00A0	00082B05	_ZN2fz14thread_invokerD1Ev
000000A2	00023740	00A1	00082B20	_ZN2fz14thread_invokerD2Ev
000000A3	00023770	00A2	00082B3B	_ZN2fz14thread_invokerclERKNS_10event_baseE
000000A4	0002CC10	00A3	00082B67	_ZN2fz15base32_decode_sB5cxx11ERKSt17basic_string_viewIcSt11char_traitsIcEENS_11base32_typeE
000000A5	0002CC30	00A4	00082BC4	_ZN2fz15base32_decode_sB5cxx11ERKSt17basic_string_viewIwSt11char_traitsIwEENS_11base32_typeE
000000A6	0002CC50	00A5	00082C21	_ZN2fz15base64_decode_sB5cxx11ERKSt17basic_string_viewIcSt11char_traitsIcEE
000000A7	0002CC70	00A6	00082C6D	_ZN2fz15base64_decode_sB5cxx11ERKSt17basic_string_viewIwSt11char_traitsIwEE
000000A8	0002CC90	00A7	00082CB9	_ZN2fz15bitscan_reverseEy
000000A9	0002CCB0	00A8	00082CD3	_ZN2fz15equal_consttimeERKSt17basic_string_viewIhSt11char_traitsIhEES5_
000000AA	0002D150	00A9	00082D1B	_ZN2fz15hostname_lookup5resetEv
000000AB	0002D2C0	00AA	00082D3B	_ZN2fz15hostname_lookup6lookupERKNSt7__cxx1112basic_stringIwSt11char_traitsIwESaIwEEENS_12address_typeE
000000AC	0002D510	00AB	00082DA3	_ZN2fz15hostname_lookupC1ERNS_11thread_poolERNS_13event_handlerE
000000AD	0002D510	00AC	00082DE4	_ZN2fz15hostname_lookupC2ERNS_11thread_poolERNS_13event_handlerE
000000AE	0002D5B0	00AD	00082E25	_ZN2fz15hostname_lookupD1Ev
000000AF	0002D5B0	00AE	00082E41	_ZN2fz15hostname_lookupD2Ev
000000B0	0002D690	00AF	00082E5D	_ZN2fz15set_translatorsEPFNSt7__cxx1112basic_stringIwSt11char_traitsIwESaIwEEEPKcEPFS5_S7_S7_xE
000000B1	0002D6C0	00B0	00082EBD	_ZN2fz16get_address_typeERKSt17basic_string_viewIcSt11char_traitsIcEE
000000B2	0002D6D0	00B1	00082F03	_ZN2fz16get_address_typeERKSt17basic_string_viewIwSt11char_traitsIwEE
000000B3	0002D6E0	00B2	00082F49	_ZN2fz16hash_accumulator6digestEv
000000B4	0002D700	00B3	00082F6B	_ZN2fz16hash_accumulator6reinitEv
000000B5	0002D710	00B4	00082F8D	_ZN2fz16hash_accumulator6updateEPKhy
000000B6	0002D720	00B5	00082FB2	_ZN2fz16hash_accumulator6updateERKSt17basic_string_viewIcSt11char_traitsIcEE
000000B7	0002D750	00B6	00082FFF	_ZN2fz16hash_accumulator6updateERKSt17basic_string_viewIhSt11char_traitsIhEE
000000B8	0002D780	00B7	0008304C	_ZN2fz16hash_accumulator6updateERKSt6vectorIhSaIhEE
000000B9	0002D7B0	00B8	00083080	_ZN2fz16hash_accumulatorC1ENS_14hash_algorithmE
000000BA	0002D7B0	00B9	000830B0	_ZN2fz16hash_accumulatorC2ENS_14hash_algorithmE
000000BB	0002D8B0	00BA	000830E0	_ZN2fz16hash_accumulatorD1Ev
000000BC	0002D8B0	00BB	000830FD	_ZN2fz16hash_accumulatorD2Ev
000000BD	0002DBF0	00BC	0008311A	_ZN2fz16nonowning_buffer3addEy
000000BE	0002DC20	00BD	00083139	_ZN2fz16nonowning_buffer3getEy
000000BF	0002DC90	00BE	00083158	_ZN2fz16nonowning_buffer5resetEv
000000C0	0002DCB0	00BF	00083179	_ZN2fz16nonowning_buffer6appendEPKhy
000000C1	0002DD40	00C0	0008319E	_ZN2fz16nonowning_buffer6resizeEy
000000C2	0002DDA0	00C1	000831C0	_ZN2fz16nonowning_buffer7consumeEy
000000C3	0002DDC0	00C2	000831E3	_ZN2fz16percent_decode_sB5cxx11ERKSt17basic_string_viewIcSt11char_traitsIcEEb
000000C4	0002E0B0	00C3	00083231	_ZN2fz16percent_decode_sB5cxx11ERKSt17basic_string_viewIwSt11char_traitsIwEEb
000000C5	0002E3B0	00C4	0008327F	_ZN2fz16percent_encode_wB5cxx11ERKSt17basic_string_viewIwSt11char_traitsIwEEb
000000C6	0002E490	00C5	000832CD	_ZN2fz16recursive_remove15adjust_shfileopER16_SHFILEOPSTRUCTW
000000C7	0002E4A0	00C6	0008330B	_ZN2fz16recursive_remove6removeENSt7__cxx114listINS1_12basic_stringIwSt11char_traitsIwESaIwEEESaIS7_EEE
000000C8	0002EDE0	00C7	00083373	_ZN2fz16recursive_remove6removeERKNSt7__cxx1112basic_stringIwSt11char_traitsIwESaIwEEE
000000C9	0002FBD0	00C8	000833CA	_ZN2fz17load_certificatesERKSt17basic_string_viewIcSt11char_traitsIcEEbbPNS_16logger_interfaceE
000000CA	000307E0	00C9	0008342A	_ZN2fz17normalize_hyphensB5cxx11ERKSt17basic_string_viewIcSt11char_traitsIcEE
000000CB	00030C70	00CA	00083478	_ZN2fz17normalize_hyphensB5cxx11ERKSt17basic_string_viewIwSt11char_traitsIwEE
000000CC	00031230	00CB	000834C6	_ZN2fz17socket_descriptorD1Ev
000000CD	00031230	00CC	000834E4	_ZN2fz17socket_descriptorD2Ev
000000CE	00031250	00CD	00083502	_ZN2fz17str_tolower_asciiB5cxx11ERKSt17basic_string_viewIcSt11char_traitsIcEE
000000CF	000312D0	00CE	00083550	_ZN2fz17str_tolower_asciiB5cxx11ERKSt17basic_string_viewIwSt11char_traitsIwEE
000000D0	00031380	00CF	0008359E	_ZN2fz17str_toupper_asciiB5cxx11ERKSt17basic_string_viewIcSt11char_traitsIcEE
000000D1	00031400	00D0	000835EC	_ZN2fz17str_toupper_asciiB5cxx11ERKSt17basic_string_viewIwSt11char_traitsIwEE
000000D2	000314B0	00D1	0008363A	_ZN2fz18get_ipv6_long_formB5cxx11ERKSt17basic_string_viewIcSt11char_traitsIcEE
000000D3	000314D0	00D2	00083689	_ZN2fz18get_ipv6_long_formB5cxx11ERKSt17basic_string_viewIwSt11char_traitsIwEE
000000D4	000314F0	00D3	000836D8	_ZN2fz18get_unique_type_idERKSt9type_info
000000D5	000318C0	00D4	00083702	_ZN2fz18get_version_stringB5cxx11Ev
000000D6	000318F0	00D5	00083726	_ZN2fz18jws_sign_flattenedERKNS_4jsonES2_S2_
000000D7	00032590	00D6	00083753	_ZN2fz18pbkdf2_hmac_sha256ERKSt17basic_string_viewIhSt11char_traitsIhEES5_yj
000000D8	000328D0	00D7	000837A0	_ZN2fz18rate_limit_manager15record_activityEv
000000D9	00032920	00D8	000837CE	_ZN2fz18rate_limit_manager19set_burst_toleranceEy
000000DA	00032940	00D9	00083800	_ZN2fz18rate_limit_manager3addEPNS_12rate_limiterE
000000DB	00032A90	00DA	00083833	_ZN2fz18rate_limit_manager7processEPNS_12rate_limiterEb
000000DC	00032BB0	00DB	0008386B	_ZN2fz18rate_limit_manager8on_timerERKy
000000DD	00032C50	00DC	00083893	_ZN2fz18rate_limit_managerC1ERNS_10event_loopE
000000DE	00032C50	00DD	000838C2	_ZN2fz18rate_limit_managerC2ERNS_10event_loopE
000000DF	00032CD0	00DE	000838F1	_ZN2fz18rate_limit_managerD0Ev
000000E0	00032D00	00DF	00083910	_ZN2fz18rate_limit_managerD1Ev
000000E1	00032D00	00E0	0008392F	_ZN2fz18rate_limit_managerD2Ev
000000E2	00032D70	00E1	0008394E	_ZN2fz18rate_limit_managerclERKNS_10event_baseE
000000E3	00032DB0	00E2	0008397E	_ZN2fz18rate_limited_layer17set_event_handlerEPNS_13event_handlerENS_17socket_event_flagE
000000E4	00032E80	00E3	000839D8	_ZN2fz18rate_limited_layer4readEPvjRi
000000E5	00032F20	00E4	000839FE	_ZN2fz18rate_limited_layer5writeEPKvjRi
000000E6	00032FD0	00E5	00083A26	_ZN2fz18rate_limited_layer6wakeupENS_9direction4typeE
000000E7	00033060	00E6	00083A5C	_ZN2fz18rate_limited_layerC1EPNS_13event_handlerERNS_16socket_interfaceEPNS_12rate_limiterE
000000E8	00033060	00E7	00083AB8	_ZN2fz18rate_limited_layerC2EPNS_13event_handlerERNS_16socket_interfaceEPNS_12rate_limiterE
000000E9	00033180	00E8	00083B14	_ZN2fz18rate_limited_layerD0Ev
000000EA	000331E0	00E9	00083B33	_ZN2fz18rate_limited_layerD1Ev
000000EB	000331E0	00EA	00083B52	_ZN2fz18rate_limited_layerD2Ev
000000EC	00033240	00EB	00083B71	_ZN2fz18replace_substringsERNSt7__cxx1112basic_stringIcSt11char_traitsIcESaIcEEERKSt17basic_string_viewIcS3_ESA_
000000ED	00033300	00EC	00083BE2	_ZN2fz18replace_substringsERNSt7__cxx1112basic_stringIcSt11char_traitsIcESaIcEEEcc
000000EE	000333C0	00ED	00083C35	_ZN2fz18replace_substringsERNSt7__cxx1112basic_stringIwSt11char_traitsIwESaIwEEERKSt17basic_string_viewIwS3_ESA_
000000EF	00033480	00EE	00083CA6	_ZN2fz18replace_substringsERNSt7__cxx1112basic_stringIwSt11char_traitsIwESaIwEEEww
000000F0	00033720	00EF	00083CF9	_ZN2fz19get_invoker_factoryERNS_10event_loopE
000000F1	00033860	00F0	00083D27	_ZN2fz19impersonation_tokenC1EOS0_
000000F2	00033870	00F1	00083D4A	_ZN2fz19impersonation_tokenC1ERKNSt7__cxx1112basic_stringIwSt11char_traitsIwESaIwEEES8_
000000F3	00033BB0	00F2	00083DA2	_ZN2fz19impersonation_tokenC1Ev
000000F4	00033860	00F3	00083DC2	_ZN2fz19impersonation_tokenC2EOS0_
000000F5	00033870	00F4	00083DE5	_ZN2fz19impersonation_tokenC2ERKNSt7__cxx1112basic_stringIwSt11char_traitsIwESaIwEEES8_
000000F6	00033BB0	00F5	00083E3D	_ZN2fz19impersonation_tokenC2Ev
000000F7	00033BC0	00F6	00083E5D	_ZN2fz19impersonation_tokenD1Ev
000000F8	00033BC0	00F7	00083E7D	_ZN2fz19impersonation_tokenD2Ev
000000F9	00033C40	00F8	00083E9D	_ZN2fz19impersonation_tokenaSEOS0_
000000FA	00033CC0	00F9	00083EC0	_ZN2fz19is_routable_addressERKSt17basic_string_viewIcSt11char_traitsIcEE
000000FB	00033CD0	00FA	00083F09	_ZN2fz19is_routable_addressERKSt17basic_string_viewIwSt11char_traitsIwEE
000000FC	00033CE0	00FB	00083F52	_ZN2fz19private_signing_key11from_base64ERKSt17basic_string_viewIcSt11char_traitsIcEE
000000FD	00033D90	00FC	00083FA8	_ZN2fz19private_signing_key8generateEv
000000FE	00033E50	00FD	00083FCF	_ZN2fz19replaced_substringsB5cxx11ERKSt17basic_string_viewIcSt11char_traitsIcEES5_S5_
000000FF	00033F30	00FE	00084025	_ZN2fz19replaced_substringsB5cxx11ERKSt17basic_string_viewIcSt11char_traitsIcEEcc
00000100	00034020	00FF	00084077	_ZN2fz19replaced_substringsB5cxx11ERKSt17basic_string_viewIwSt11char_traitsIwEES5_S5_
00000101	00034100	0100	000840CD	_ZN2fz19replaced_substringsB5cxx11ERKSt17basic_string_viewIwSt11char_traitsIwEEww
00000102	000341F0	0101	0008411F	_ZN2fz19socket_error_stringB5cxx11Ei
00000103	000344A0	0102	00084144	_ZN2fz20base64_encode_appendERNSt7__cxx1112basic_stringIcSt11char_traitsIcESaIcEEERKSt17basic_string_viewIcS3_ENS_11base64_typeEb
00000104	00034570	0103	000841C6	_ZN2fz20remove_socket_eventsEPNS_13event_handlerEPKNS_19socket_event_sourceE
00000105	00034600	0104	00084213	_ZN2fz20to_wstring_from_utf8B5cxx11EPKcy
00000106	000346D0	0105	0008423C	_ZN2fz20to_wstring_from_utf8B5cxx11ERKNS_6bufferE
00000107	000347A0	0106	0008426E	_ZN2fz20to_wstring_from_utf8B5cxx11ERKSt17basic_string_viewIcSt11char_traitsIcEE
00000108	00038940	0107	000842BF	_ZN2fz22load_certificates_fileERKNSt7__cxx1112basic_stringIwSt11char_traitsIwESaIwEEEbbPNS_16logger_interfaceE
00000109	00038C40	0108	0008432E	_ZN2fz22spawn_detached_processERKSt6vectorINSt7__cxx1112basic_stringIwSt11char_traitsIwESaIwEEESaIS6_EE
0000010A	00038DE0	0109	00084396	_ZN2fz22tls_system_trust_storeC1ERNS_11thread_poolE
0000010B	00038DE0	010A	000843CA	_ZN2fz22tls_system_trust_storeC2ERNS_11thread_poolE
0000010C	00038E30	010B	000843FE	_ZN2fz22tls_system_trust_storeD1Ev
0000010D	00038E30	010C	00084421	_ZN2fz22tls_system_trust_storeD2Ev
0000010E	00039020	010D	00084444	_ZN2fz23public_verification_key11from_base64ERKSt17basic_string_viewIcSt11char_traitsIcEE
0000010F	000390D0	010E	0008449E	_ZN2fz24socket_error_descriptionB5cxx11Ei
00000110	00039570	010F	000844C8	_ZN2fz27change_socket_event_handlerEPNS_13event_handlerES1_PKNS_19socket_event_sourceENS_17socket_event_flagE
00000111	000396A0	0110	00084536	_ZN2fz27compound_rate_limited_layer11add_limiterEPNS_12rate_limiterE
00000112	00039970	0111	0008457B	_ZN2fz27compound_rate_limited_layer14remove_limiterEPNS_12rate_limiterE
00000113	00039BD0	0112	000845C3	_ZN2fz27compound_rate_limited_layer17set_event_handlerEPNS_13event_handlerENS_17socket_event_flagE
00000114	00039C90	0113	00084626	_ZN2fz27compound_rate_limited_layer4readEPvjRi
00000115	00039DB0	0114	00084655	_ZN2fz27compound_rate_limited_layer5writeEPKvjRi
00000116	00039EF0	0115	00084686	_ZN2fz27compound_rate_limited_layerC1EPNS_13event_handlerERNS_16socket_interfaceE
00000117	00039EF0	0116	000846D8	_ZN2fz27compound_rate_limited_layerC2EPNS_13event_handlerERNS_16socket_interfaceE
00000118	00039FC0	0117	0008472A	_ZN2fz27compound_rate_limited_layerD0Ev
00000119	00039FF0	0118	00084752	_ZN2fz27compound_rate_limited_layerD1Ev
0000011A	00039FF0	0119	0008477A	_ZN2fz27compound_rate_limited_layerD2Ev
0000011B	0003A920	011A	000847A2	_ZN2fz3md5ERKSt17basic_string_viewIcSt11char_traitsIcEE
0000011C	0003A9D0	011B	000847DA	_ZN2fz3md5ERKSt6vectorIhSaIhEE
0000011D	0003AA80	011C	000847F9	_ZN2fz3uri15parse_authorityESt17basic_string_viewIcSt11char_traitsIcEE
0000011E	0003B080	011D	00084840	_ZN2fz3uri5clearEv
0000011F	0003B870	011E	00084853	_ZN2fz3uri5parseESt17basic_string_viewIcSt11char_traitsIcEE
00000120	0003BCD0	011F	0008488F	_ZN2fz3uri7resolveERKS0_
00000121	0003C0F0	0120	000848A8	_ZN2fz3uriC1ERKSt17basic_string_viewIcSt11char_traitsIcEE
00000122	0003C0F0	0121	000848E2	_ZN2fz3uriC2ERKSt17basic_string_viewIcSt11char_traitsIcEE
00000123	0003C250	0122	0008491C	_ZN2fz4file4openERKNSt7__cxx1112basic_stringIwSt11char_traitsIwESaIwEEENS0_4modeENS0_14creation_flagsE
00000124	0003C460	0123	00084983	_ZN2fz4file4readEPvx
00000125	0003C4A0	0124	00084998	_ZN2fz4file4seekExNS0_9seek_modeE
00000126	0003C4F0	0125	000849BA	_ZN2fz4file5closeEv
00000127	0003C520	0126	000849CE	_ZN2fz4file5fsyncEv
00000128	0003C540	0127	000849E2	_ZN2fz4file5writeEPKvx
00000129	0003C580	0128	000849F9	_ZN2fz4file6detachEv
0000012A	0003C590	0129	00084A0E	_ZN2fz4file8truncateEv
0000012B	0003C5B0	012A	00084A25	_ZN2fz4fileC1EOS0_
0000012C	0003C5C0	012B	00084A38	_ZN2fz4fileC1EPv
0000012D	0003C5D0	012C	00084A49	_ZN2fz4fileC1ERKNSt7__cxx1112basic_stringIwSt11char_traitsIwESaIwEEENS0_4modeENS0_14creation_flagsE
0000012E	0003C5B0	012D	00084AAD	_ZN2fz4fileC2EOS0_
0000012F	0003C5C0	012E	00084AC0	_ZN2fz4fileC2EPv
00000130	0003C5D0	012F	00084AD1	_ZN2fz4fileC2ERKNSt7__cxx1112basic_stringIwSt11char_traitsIwESaIwEEENS0_4modeENS0_14creation_flagsE
00000131	0003C5E0	0130	00084B35	_ZN2fz4fileD1Ev
00000132	0003C5E0	0131	00084B45	_ZN2fz4fileD2Ev
00000133	0003C600	0132	00084B55	_ZN2fz4fileaSEOS0_
00000134	0003C650	0133	00084B68	_ZN2fz4json10check_typeENS_9json_typeE
00000135	0003C680	0134	00084B8F	_ZN2fz4json5clearEv
00000136	0003C700	0135	00084BA3	_ZN2fz4json5eraseERKNSt7__cxx1112basic_stringIcSt11char_traitsIcESaIcEEE
00000137	0003C840	0136	00084BEC	_ZN2fz4json5parseERKNS_6bufferEy
00000138	0003C8F0	0137	00084C0D	_ZN2fz4json5parseERKSt17basic_string_viewIcSt11char_traitsIcEEy
00000139	0003C980	0138	00084C4D	_ZN2fz4json5parseERPKcS2_y
0000013A	0003DFB0	0139	00084C68	_ZN2fz4json8set_typeENS_9json_typeE
0000013B	0003E180	013A	00084C8C	_ZN2fz4jsonaSEOS0_
0000013C	0003E210	013B	00084C9F	_ZN2fz4jsonaSERKS0_
0000013D	0003E2B0	013C	00084CB3	_ZN2fz4jsonaSERKSt17basic_string_viewIcSt11char_traitsIcEE
0000013E	0003E440	013D	00084CEE	_ZN2fz4jsonixERKNSt7__cxx1112basic_stringIcSt11char_traitsIcESaIcEEE
0000013F	0003E7A0	013E	00084D33	_ZN2fz4jsonixEy
00000140	0003EAC0	013F	00084D43	_ZN2fz4signEPKhyRKNS_19private_signing_keyEb
00000141	0003ED00	0140	00084D70	_ZN2fz4signERKSt17basic_string_viewIcSt11char_traitsIcEERKNS_19private_signing_keyEb
00000142	0003ED30	0141	00084DC5	_ZN2fz4signERKSt6vectorIhSaIhEERKNS_19private_signing_keyEb
00000143	0003ED70	0142	00084E01	_ZN2fz5mkdirERKNSt7__cxx1112basic_stringIwSt11char_traitsIwESaIwEEEbNS_17mkdir_permissionsEPS5_
00000144	0003F850	0143	00084E61	_ZN2fz5mutex4lockEv
00000145	0003F860	0144	00084E75	_ZN2fz5mutex6unlockEv
00000146	0003F870	0145	00084E8B	_ZN2fz5mutex8try_lockEv
00000147	0003F890	0146	00084EA3	_ZN2fz5mutexC1Eb
00000148	0003F890	0147	00084EB4	_ZN2fz5mutexC2Eb
00000149	0003F8A0	0148	00084EC5	_ZN2fz5mutexD1Ev
0000014A	0003F8A0	0149	00084ED6	_ZN2fz5mutexD2Ev
0000014B	0003F8B0	014A	00084EE7	_ZN2fz5sleepERKNS_8durationE
0000014C	0003F8C0	014B	00084F04	_ZN2fz5yieldEv
0000014D	0003F8D0	014C	00084F13	_ZN2fz6bucket10add_tokensENS_9direction4typeEyy
0000014E	0003F9B0	014D	00084F43	_ZN2fz6bucket11unlock_treeEv
0000014F	0003FA30	014E	00084F60	_ZN2fz6bucket12update_statsERb
00000150	0003FAB0	014F	00084F7F	_ZN2fz6bucket13remove_bucketEv
00000151	0003FB00	0150	00084F9E	_ZN2fz6bucket19distribute_overflowENS_9direction4typeEy
00000152	0003FB70	0151	00084FD6	_ZN2fz6bucket26gather_unspent_for_removalEv
00000153	0003FBC0	0152	00085002	_ZN2fz6bucket7consumeENS_9direction4typeEy
00000154	0003FC70	0153	0008502D	_ZN2fz6bucket7waitingERNS_11scoped_lockENS_9direction4typeE
00000155	0003FC90	0154	00085069	_ZN2fz6bucket9availableENS_9direction4typeE
00000156	0003FD20	0155	00085095	_ZN2fz6bucketD0Ev
00000157	0003FDA0	0156	000850A7	_ZN2fz6bucketD1Ev
00000158	0003FDA0	0157	000850B9	_ZN2fz6bucketD2Ev
00000159	0003FE10	0158	000850CB	_ZN2fz6buffer3addEy
0000015A	0003FE50	0159	000850DF	_ZN2fz6buffer3getEy
0000015B	0003FF50	015A	000850F3	_ZN2fz6buffer5clearEv
0000015C	0003FF60	015B	00085109	_ZN2fz6buffer6appendEPKhy
0000015D	000400A0	015C	00085123	_ZN2fz6buffer6appendERKSt17basic_string_viewIcSt11char_traitsIcEE
0000015E	000400B0	015D	00085165	_ZN2fz6buffer6appendERKSt6vectorIhSaIhEE
0000015F	000400D0	015E	0008518E	_ZN2fz6buffer6appendEh
00000160	000400F0	015F	000851A5	_ZN2fz6buffer6resizeEy
00000161	00040160	0160	000851BC	_ZN2fz6buffer7consumeEy
00000162	000401A0	0161	000851D4	_ZN2fz6buffer7reserveEy
00000163	00040210	0162	000851EC	_ZN2fz6bufferC1EOS0_
00000164	00040250	0163	00085201	_ZN2fz6bufferC1ERKS0_
00000165	000402D0	0164	00085217	_ZN2fz6bufferC1Ey
00000166	00040210	0165	00085229	_ZN2fz6bufferC2EOS0_
00000167	00040250	0166	0008523E	_ZN2fz6bufferC2ERKS0_
00000168	000402D0	0167	00085254	_ZN2fz6bufferC2Ey
00000169	00040360	0168	00085266	_ZN2fz6bufferaSEOS0_
0000016A	000403D0	0169	0008527B	_ZN2fz6bufferaSERKS0_
0000016B	0004ED00	016A	00085291	_ZN2fz6sha256ERKSt17basic_string_viewIcSt11char_traitsIcEE
0000016C	0004EDB0	016B	000852CC	_ZN2fz6sha256ERKSt6vectorIhSaIhEE
0000016D	0004F140	016C	000852EE	_ZN2fz6socket14get_descriptorEv
0000016E	0004F1A0	016D	0008530E	_ZN2fz6socket15from_descriptorEONS_17socket_descriptorERNS_11thread_poolERiPNS_13event_handlerE
0000016F	0004F4B0	016E	0008536E	_ZN2fz6socket17set_event_handlerEPNS_13event_handlerENS_17socket_event_flagE
00000170	0004F620	016F	000853BB	_ZN2fz6socket22ideal_send_buffer_sizeEv
00000171	0004F6F0	0170	000853E3	_ZN2fz6socket22set_keepalive_intervalERKNS_8durationE
00000172	0004F780	0171	00085419	_ZN2fz6socket4readEPvjRi
00000173	0004F890	0172	00085432	_ZN2fz6socket5writeEPKvjRi
00000174	0004F990	0173	0008544D	_ZN2fz6socket7connectERKNSt7__cxx1112basic_stringIwSt11char_traitsIwESaIwEEEjNS_12address_typeE
00000175	0004FC60	0174	000854AD	_ZN2fz6socket8shutdownEv
00000176	0004FCF0	0175	000854C6	_ZN2fz6socket9set_flagsEi
00000177	0004FD60	0176	000854E0	_ZN2fz6socket9set_flagsEib
00000178	0004FDF0	0177	000854FB	_ZN2fz6socketC1ERNS_11thread_poolEPNS_13event_handlerE
00000179	0004FDF0	0178	00085532	_ZN2fz6socketC2ERNS_11thread_poolEPNS_13event_handlerE
0000017A	0004FE50	0179	00085569	_ZN2fz6socketD0Ev
0000017B	0004FE80	017A	0008557B	_ZN2fz6socketD1Ev
0000017C	0004FE80	017B	0008558D	_ZN2fz6socketD2Ev
0000017D	0004FF10	017C	0008559F	_ZN2fz6strtokB5cxx11ERKSt17basic_string_viewIcSt11char_traitsIcEES5_b
0000017E	0004FF30	017D	000855E5	_ZN2fz6strtokB5cxx11ERKSt17basic_string_viewIcSt11char_traitsIcEEcb
0000017F	0004FF70	017E	00085629	_ZN2fz6strtokB5cxx11ERKSt17basic_string_viewIwSt11char_traitsIwEES5_b
00000180	0004FF90	017F	0008566F	_ZN2fz6strtokB5cxx11ERKSt17basic_string_viewIwSt11char_traitsIwEEwb
00000181	0004FFD0	0180	000856B3	_ZN2fz6thread3runEOSt8functionIFvvEE
00000182	00050150	0181	000856D8	_ZN2fz6thread4joinEv
00000183	000501D0	0182	000856ED	_ZN2fz6thread6own_idEv
00000184	000501E0	0183	00085704	_ZN2fz6threadD1Ev
00000185	000501E0	0184	00085716	_ZN2fz6threadD2Ev
00000186	00050240	0185	00085728	_ZN2fz6verifyEPKhyRKNS_23public_verification_keyE
00000187	00050280	0186	0008575A	_ZN2fz6verifyEPKhyS1_yRKNS_23public_verification_keyE
00000188	000502D0	0187	00085790	_ZN2fz6verifyERKSt17basic_string_viewIcSt11char_traitsIcEERKNS_23public_verification_keyE
00000189	00050310	0188	000857EA	_ZN2fz6verifyERKSt17basic_string_viewIcSt11char_traitsIcEES5_RKNS_23public_verification_keyE
0000018A	00050360	0189	00085847	_ZN2fz6verifyERKSt6vectorIhSaIhEERKNS_23public_verification_keyE
0000018B	000503B0	018A	00085888	_ZN2fz6verifyERKSt6vectorIhSaIhEES4_RKNS_23public_verification_keyE
0000018C	00050410	018B	000858CC	_ZN2fz7bitscanEy
0000018D	00050420	018C	000858DD	_ZN2fz7decryptEPKhyRKNS_11private_keyES1_y
0000018E	00050460	018D	00085908	_ZN2fz7decryptEPKhyRKNS_11private_keyEb
0000018F	000504A0	018E	00085930	_ZN2fz7decryptEPKhyRKNS_13symmetric_keyE
00000190	000504D0	018F	00085959	_ZN2fz7decryptEPKhyRKNS_13symmetric_keyES1_y
00000191	000507F0	0190	00085986	_ZN2fz7decryptERKSt17basic_string_viewIcSt11char_traitsIcEERKNS_11private_keyES5_
00000192	00050830	0191	000859D8	_ZN2fz7decryptERKSt17basic_string_viewIcSt11char_traitsIcEERKNS_11private_keyEb
00000193	00050870	0192	00085A28	_ZN2fz7decryptERKSt17basic_string_viewIcSt11char_traitsIcEERKNS_13symmetric_keyE
00000194	000508B0	0193	00085A79	_ZN2fz7decryptERKSt17basic_string_viewIcSt11char_traitsIcEERKNS_13symmetric_keyES5_
00000195	000508F0	0194	00085ACD	_ZN2fz7decryptERKSt6vectorIhSaIhEERKNS_11private_keyES4_
00000196	00050940	0195	00085B06	_ZN2fz7decryptERKSt6vectorIhSaIhEERKNS_11private_keyEb
00000197	00050990	0196	00085B3D	_ZN2fz7decryptERKSt6vectorIhSaIhEERKNS_13symmetric_keyE
00000198	000509D0	0197	00085B75	_ZN2fz7decryptERKSt6vectorIhSaIhEERKNS_13symmetric_keyES4_
00000199	00050A20	0198	00085BB0	_ZN2fz7encryptEPKhyRKNS_10public_keyES1_y
0000019A	00050A60	0199	00085BDA	_ZN2fz7encryptEPKhyRKNS_10public_keyEb
0000019B	00050AA0	019A	00085C01	_ZN2fz7encryptEPKhyRKNS_13symmetric_keyE
0000019C	00050AD0	019B	00085C2A	_ZN2fz7encryptEPKhyRKNS_13symmetric_keyES1_y
0000019D	00050E00	019C	00085C57	_ZN2fz7encryptERKSt17basic_string_viewIcSt11char_traitsIcEERKNS_10public_keyES5_
0000019E	00050E40	019D	00085CA8	_ZN2fz7encryptERKSt17basic_string_viewIcSt11char_traitsIcEERKNS_10public_keyEb
0000019F	00050E80	019E	00085CF7	_ZN2fz7encryptERKSt17basic_string_viewIcSt11char_traitsIcEERKNS_13symmetric_keyE
000001A0	00050EC0	019F	00085D48	_ZN2fz7encryptERKSt17basic_string_viewIcSt11char_traitsIcEERKNS_13symmetric_keyES5_
000001A1	00050F00	01A0	00085D9C	_ZN2fz7encryptERKSt6vectorIhSaIhEERKNS_10public_keyES4_
000001A2	00050F50	01A1	00085DD4	_ZN2fz7encryptERKSt6vectorIhSaIhEERKNS_10public_keyEb
000001A3	00050FA0	01A2	00085E0A	_ZN2fz7encryptERKSt6vectorIhSaIhEERKNS_13symmetric_keyE
000001A4	00050FE0	01A3	00085E42	_ZN2fz7encryptERKSt6vectorIhSaIhEERKNS_13symmetric_keyES4_
000001A5	00051770	01A4	00085E7D	_ZN2fz7process4killEv
000001A6	00051860	01A5	00085E93	_ZN2fz7process4readEPcj
000001A7	000518D0	01A6	00085EAB	_ZN2fz7process5spawnERKNS_19impersonation_tokenERKNSt7__cxx1112basic_stringIwSt11char_traitsIwESaIwEEERKSt6vectorIS9_SaIS9_EEb
000001A8	00051930	01A7	00085F2A	_ZN2fz7process5spawnERKNSt7__cxx1112basic_stringIwSt11char_traitsIwESaIwEEERKSt6vectorIS6_SaIS6_EEb
000001A9	00051980	01A8	00085F8E	_ZN2fz7process5spawnERKSt6vectorINSt7__cxx1112basic_stringIwSt11char_traitsIwESaIwEEESaIS7_EEb
000001AA	000519E0	01A9	00085FED	_ZN2fz7process5writeEPKcj
000001AB	00051A70	01AA	00086007	_ZN2fz7processC1Ev
000001AC	00051A70	01AB	0008601A	_ZN2fz7processC2Ev
000001AD	00051AD0	01AC	0008602D	_ZN2fz7processD1Ev
000001AE	00051AD0	01AD	00086040	_ZN2fz7processD2Ev
000001AF	00051CA0	01AE	00086053	_ZN2fz7stricmpERKSt17basic_string_viewIcSt11char_traitsIcEES5_
000001B0	00051CF0	01AF	00086092	_ZN2fz7stricmpERKSt17basic_string_viewIwSt11char_traitsIwEES5_
000001B1	00051D40	01B0	000860D1	_ZN2fz7to_utf8B5cxx11ERKSt17basic_string_viewIcSt11char_traitsIcEE
000001B2	00051DC0	01B1	00086114	_ZN2fz7to_utf8B5cxx11ERKSt17basic_string_viewIwSt11char_traitsIwEE
000001B3	00051EB0	01B2	00086157	_ZN2fz7trimmedB5cxx11ESt17basic_string_viewIcSt11char_traitsIcEERKS3_bb
000001B4	00051F10	01B3	0008619F	_ZN2fz7trimmedB5cxx11ESt17basic_string_viewIwSt11char_traitsIwEERKS3_bb
000001B5	00051F70	01B4	000861E7	_ZN2fz8datetime10imbue_timeEiiii
000001B6	00052030	01B5	00086208	_ZN2fz8datetime10set_rfc822ERKSt17basic_string_viewIcSt11char_traitsIcEE
000001B7	00052380	01B6	00086251	_ZN2fz8datetime10set_rfc822ERKSt17basic_string_viewIwSt11char_traitsIwEE
000001B8	000526D0	01B7	0008629A	_ZN2fz8datetime11set_rfc3339ERKSt17basic_string_viewIcSt11char_traitsIcEE
000001B9	00052C90	01B8	000862E4	_ZN2fz8datetime11set_rfc3339ERKSt17basic_string_viewIwSt11char_traitsIwEE
000001BA	000532A0	01B9	0008632E	_ZN2fz8datetime13verify_formatERKNSt7__cxx1112basic_stringIcSt11char_traitsIcESaIcEEE
000001BB	00053360	01BA	00086384	_ZN2fz8datetime13verify_formatERKNSt7__cxx1112basic_stringIwSt11char_traitsIwESaIwEEE
000001BC	00053420	01BB	000863DA	_ZN2fz8datetime3nowEv
000001BD	000534B0	01BC	000863F0	_ZN2fz8datetime3setENS0_4zoneEiiiiiii
000001BE	00053610	01BD	00086416	_ZN2fz8datetime3setERK11_SYSTEMTIMENS0_8accuracyENS0_4zoneE
000001BF	000536B0	01BE	00086452	_ZN2fz8datetime3setERK9_FILETIMENS0_8accuracyE
000001C0	00053720	01BF	00086481	_ZN2fz8datetime3setERKSt17basic_string_viewIcSt11char_traitsIcEENS0_4zoneE
000001C1	00053730	01C0	000864CC	_ZN2fz8datetime3setERKSt17basic_string_viewIwSt11char_traitsIwEENS0_4zoneE
000001C2	00053740	01C1	00086517	_ZN2fz8datetime5clearEv
000001C3	00053760	01C2	0008652F	_ZN2fz8datetime7clampedEv
000001C4	00053800	01C3	00086549	_ZN2fz8datetimeC1ENS0_4zoneEiiiiiii
000001C5	00053960	01C4	0008656D	_ZN2fz8datetimeC1ERK9_FILETIMENS0_8accuracyE
000001C6	000539C0	01C5	0008659A	_ZN2fz8datetimeC1ERKSt17basic_string_viewIcSt11char_traitsIcEENS0_4zoneE
000001C7	000539E0	01C6	000865E3	_ZN2fz8datetimeC1ERKSt17basic_string_viewIwSt11char_traitsIwEENS0_4zoneE
000001C8	00053A00	01C7	0008662C	_ZN2fz8datetimeC1ExNS0_8accuracyE
000001C9	00053800	01C8	0008664E	_ZN2fz8datetimeC2ENS0_4zoneEiiiiiii
000001CA	00053960	01C9	00086672	_ZN2fz8datetimeC2ERK9_FILETIMENS0_8accuracyE
000001CB	000539C0	01CA	0008669F	_ZN2fz8datetimeC2ERKSt17basic_string_viewIcSt11char_traitsIcEENS0_4zoneE
000001CC	000539E0	01CB	000866E8	_ZN2fz8datetimeC2ERKSt17basic_string_viewIwSt11char_traitsIwEENS0_4zoneE
000001CD	00053A00	01CC	00086731	_ZN2fz8datetimeC2ExNS0_8accuracyE
000001CE	00053A10	01CD	00086753	_ZN2fz8datetimemIERKNS_8durationE
000001CF	00053B20	01CE	00086775	_ZN2fz8datetimepLERKNS_8durationE
000001D0	00053C20	01CF	00086797	_ZN2fz8ltrimmedB5cxx11ESt17basic_string_viewIcSt11char_traitsIcEERKS3_
000001D1	00053C70	01D0	000867DE	_ZN2fz8ltrimmedB5cxx11ESt17basic_string_viewIwSt11char_traitsIwEERKS3_
000001D2	00053CD0	01D1	00086825	_ZN2fz8rtrimmedB5cxx11ESt17basic_string_viewIcSt11char_traitsIcEERKS3_
000001D3	00053D20	01D2	0008686C	_ZN2fz8rtrimmedB5cxx11ESt17basic_string_viewIwSt11char_traitsIwEERKS3_
000001D4	00053D80	01D3	000868B3	_ZN2fz9condition4waitERNS_11scoped_lockE
000001D5	00053DC0	01D4	000868DC	_ZN2fz9condition4waitERNS_11scoped_lockERKNS_8durationE
000001D6	00053E20	01D5	00086914	_ZN2fz9condition6signalERNS_11scoped_lockE
000001D7	00053E40	01D6	0008693F	_ZN2fz9conditionC1Ev
000001D8	00053E40	01D7	00086954	_ZN2fz9conditionC2Ev
000001D9	00053E50	01D8	00086969	_ZN2fz9conditionD1Ev
000001DA	00053E50	01D9	0008697E	_ZN2fz9conditionD2Ev
000001DB	00053F60	01DA	00086993	_ZN2fz9tls_layer12generate_csrERKNSt7__cxx1112basic_stringIwSt11char_traitsIwESaIwEEERKNS2_IcS3_IcESaIcEEERKSt6vectorISB_SaISB_EEb
000001DC	00053F90	01DB	00086A16	_ZN2fz9tls_layer13shutdown_readEv
000001DD	00053FA0	01DC	00086A38	_ZN2fz9tls_layer15set_certificateERKSt17basic_string_viewIcSt11char_traitsIcEES6_RKNSt7__cxx1112basic_stringIwS2_IwESaIwEEEb
000001DE	00053FC0	01DD	00086AB5	_ZN2fz9tls_layer15set_max_tls_verENS_7tls_verE
000001DF	00053FE0	01DE	00086AE4	_ZN2fz9tls_layer15set_min_tls_verENS_7tls_verE
000001E0	00054000	01DF	00086B13	_ZN2fz9tls_layer16client_handshakeEPNS_13event_handlerERKSt6vectorIhSaIhEERKNSt7__cxx1112basic_stringIwSt11char_traitsIwESaIwEEE
000001E1	00054090	01E0	00086B94	_ZN2fz9tls_layer16client_handshakeERKSt6vectorIhSaIhEES5_RKNSt7__cxx1112basic_stringIwSt11char_traitsIwESaIwEEE
000001E2	000540C0	01E1	00086C04	_ZN2fz9tls_layer16list_tls_ciphersERKNSt7__cxx1112basic_stringIcSt11char_traitsIcESaIcEEE
000001E3	000540E0	01E2	00086C5E	_ZN2fz9tls_layer16server_handshakeERKSt6vectorIhSaIhEERKSt17basic_string_viewIcSt11char_traitsIcEENS_16tls_server_flagsE
000001E4	000540F0	01E3	00086CD7	_ZN2fz9tls_layer17set_event_handlerEPNS_13event_handlerENS_17socket_event_flagE
000001E5	00054100	01E4	00086D27	_ZN2fz9tls_layer18get_gnutls_versionB5cxx11Ev
000001E6	00054120	01E5	00086D55	_ZN2fz9tls_layer18new_session_ticketEv
000001E7	00054140	01E6	00086D7C	_ZN2fz9tls_layer20set_certificate_fileERKNSt7__cxx1112basic_stringIwSt11char_traitsIwESaIwEEES8_S8_b
000001E8	00054160	01E7	00086DE1	_ZN2fz9tls_layer23set_verification_resultEb
000001E9	00054170	01E8	00086E0D	_ZN2fz9tls_layer31generate_selfsigned_certificateERKNSt7__cxx1112basic_stringIwSt11char_traitsIwESaIwEEERKNS2_IcS3_IcESaIcEEERKSt6vectorISB_SaISB_EE
000001EA	00054190	01E9	00086EA2	_ZN2fz9tls_layer4readEPvjRi
000001EB	000541A0	01EA	00086EBE	_ZN2fz9tls_layer5writeEPKvjRi
000001EC	000541B0	01EB	00086EDC	_ZN2fz9tls_layer7connectERKNSt7__cxx1112basic_stringIwSt11char_traitsIwESaIwEEEjNS_12address_typeE
000001ED	000541C0	01EC	00086F3F	_ZN2fz9tls_layer8set_alpnERKSt17basic_string_viewIcSt11char_traitsIcEE
000001EE	00054330	01ED	00086F86	_ZN2fz9tls_layer8set_alpnERKSt6vectorINSt7__cxx1112basic_stringIcSt11char_traitsIcESaIcEEESaIS7_EE
000001EF	00054730	01EE	00086FE9	_ZN2fz9tls_layer8shutdownEv
000001F0	00054740	01EF	00087005	_ZN2fz9tls_layerC1ERNS_10event_loopEPNS_13event_handlerERNS_16socket_interfaceEPNS_22tls_system_trust_storeERNS_16logger_interfaceE
000001F1	00054740	01F0	00087089	_ZN2fz9tls_layerC2ERNS_10event_loopEPNS_13event_handlerERNS_16socket_interfaceEPNS_22tls_system_trust_storeERNS_16logger_interfaceE
000001F2	00054850	01F1	0008710D	_ZN2fz9tls_layerD0Ev
000001F3	000548C0	01F2	00087122	_ZN2fz9tls_layerD1Ev
000001F4	000548C0	01F3	00087137	_ZN2fz9tls_layerD2Ev
000001F5	00054920	01F4	0008714C	_ZN2fz9tls_layerclERKNS_10event_baseE
000001F6	00054930	01F5	00087172	_ZN2fz9to_nativeB5cxx11ERKSt17basic_string_viewIcSt11char_traitsIcEE
000001F7	000549F0	01F6	000871B7	_ZN2fz9to_nativeB5cxx11ERKSt17basic_string_viewIwSt11char_traitsIwEE
000001F8	00054A20	01F7	000871FC	_ZN2fz9to_stringB5cxx11ERKSt17basic_string_viewIcSt11char_traitsIcEE
000001F9	00054AE0	01F8	00087241	_ZN2fz9to_stringB5cxx11ERKSt17basic_string_viewIwSt11char_traitsIwEE
000001FA	00054BC0	01F9	00087286	_ZN2fz9translateB5cxx11EPKc
000001FB	00054BE0	01FA	000872A2	_ZN2fz9translateB5cxx11EPKcS1_x
000001FC	000550F0	01FB	000872C2	_ZN2fzeqERKNS_13symmetric_keyES2_
000001FD	000551C0	01FC	000872E4	_ZN2fzmiERKNS_8datetimeES2_
000001FE	000551D0	01FD	00087300	_ZN2fzmiERKNS_8durationES2_
000001FF	000551E0	01FE	0008731C	_ZN2fzneERKNS_13symmetric_keyES2_
00000200	00055200	01FF	0008733E	_ZN2fzplERKNS_8durationES2_
00000201	00055280	0200	0008735A	_ZNK2fz10public_key9to_base64B5cxx11Eb
00000202	00055390	0201	00087381	_ZNK2fz11private_key13shared_secretERKNS_10public_keyE
00000203	00055440	0202	000873B8	_ZNK2fz11private_key6pubkeyEv
00000204	00055510	0203	000873D6	_ZNK2fz11private_key9to_base64B5cxx11Eb
00000205	00055530	0204	000873FE	_ZNK2fz11socket_base10local_portERi
00000206	000555B0	0205	00087422	_ZNK2fz11socket_base14address_familyEv
00000207	00055620	0206	00087449	_ZNK2fz11socket_base8local_ipB5cxx11Eb
00000208	00055710	0207	00087470	_ZNK2fz12query_string9to_stringB5cxx11Eb
00000209	00055E50	0208	00087499	_ZNK2fz13listen_socket9get_stateEv
0000020A	00055E90	0209	000874BC	_ZNK2fz13symmetric_key3keyEv
0000020B	00055EA0	020A	000874D9	_ZNK2fz13symmetric_key9to_base64B5cxx11Eb
0000020C	00056DB0	020B	00087503	_ZNK2fz19impersonation_token4hashEv
0000020D	00056E40	020C	00087527	_ZNK2fz19impersonation_token4homeB5cxx11Ev
0000020E	00057030	020D	00087552	_ZNK2fz19impersonation_token8usernameB5cxx11Ev
0000020F	00057140	020E	00087581	_ZNK2fz19impersonation_tokeneqERKS0_
00000210	00057200	020F	000875A6	_ZNK2fz19impersonation_tokenltERKS0_
00000211	000573C0	0210	000875CB	_ZNK2fz19private_signing_key6pubkeyEv
00000212	00057440	0211	000875F1	_ZNK2fz19private_signing_key9to_base64B5cxx11Ev
00000213	00057460	0212	00087621	_ZNK2fz23public_verification_key9to_base64B5cxx11Ev
00000214	00057580	0213	00087655	_ZNK2fz3uri11get_requestB5cxx11Eb
00000215	00057650	0214	00087677	_ZNK2fz3uri13get_authorityB5cxx11Eb
00000216	00057A00	0215	0008769B	_ZNK2fz3uri5emptyEv
00000217	00057A20	0216	000876AF	_ZNK2fz3uri9to_stringB5cxx11Eb
00000218	00057CD0	0217	000876CE	_ZNK2fz3urieqERKS0_
00000219	00057E50	0218	000876E2	_ZNK2fz4file4sizeEv
0000021A	00057E90	0219	000876F6	_ZNK2fz4file6openedEv
0000021B	00057EA0	021A	0008770C	_ZNK2fz4json10bool_valueEv
0000021C	00057F10	021B	00087727	_ZNK2fz4json12string_valueB5cxx11Ev
0000021D	00057FE0	021C	0008774B	_ZNK2fz4json19number_value_doubleEv
0000021E	000581A0	021D	0008776F	_ZNK2fz4json20number_value_integerEv
0000021F	000582D0	021E	00087794	_ZNK2fz4json8childrenEv
00000220	00058330	021F	000877AC	_ZNK2fz4json9to_stringB5cxx11Eby
00000221	00058D30	0220	000877CD	_ZNK2fz4jsonixERKNSt7__cxx1112basic_stringIcSt11char_traitsIcESaIcEEE
00000222	00058ED0	0221	00087813	_ZNK2fz4jsonixEy
00000223	00058FC0	0222	00087824	_ZNK2fz6buffer7to_viewEv
00000224	00058FF0	0223	0008783D	_ZNK2fz6buffereqERKS0_
00000225	00059030	0224	00087854	_ZNK2fz6socket7peer_ipB5cxx11Eb
00000226	000590C0	0225	00087874	_ZNK2fz6socket9get_stateEv
00000227	00059100	0226	0008788F	_ZNK2fz6socket9peer_hostB5cxx11Ev
00000228	000591D0	0227	000878B1	_ZNK2fz6socket9peer_portERi
00000229	00059250	0228	000878CD	_ZNK2fz6thread8joinableEv
0000022A	00059260	0229	000878E7	_ZNK2fz7process6handleEv
0000022B	00059280	022A	00087900	_ZNK2fz8datetime10get_rfc822B5cxx11Ev
0000022C	00059370	022B	00087926	_ZNK2fz8datetime10get_time_tEv
0000022D	000593A0	022C	00087945	_ZNK2fz8datetime12compare_slowERKS0_
0000022E	00059540	022D	0008796A	_ZNK2fz8datetime12get_filetimeEv
0000022F	00059590	022E	0008798B	_ZNK2fz8datetime5emptyEv
00000230	000595B0	022F	000879A4	_ZNK2fz8datetime6formatERKNSt7__cxx1112basic_stringIcSt11char_traitsIcESaIcEEENS0_4zoneE
00000231	00059630	0230	000879FD	_ZNK2fz8datetime6formatERKNSt7__cxx1112basic_stringIwSt11char_traitsIwESaIwEEENS0_4zoneE
00000232	000596B0	0231	00087A56	_ZNK2fz8datetime6get_tmENS0_4zoneE
00000233	00059860	0232	00087A79	_ZNK2fz8datetime7compareERKS0_
00000234	000598E0	0233	00087A98	_ZNK2fz8datetimeeqERKS0_
00000235	00059900	0234	00087AB1	_ZNK2fz8datetimeleERKS0_
00000236	00059940	0235	00087ACA	_ZNK2fz8datetimeltERKS0_
00000237	00059980	0236	00087AE3	_ZNK2fz9tls_layer10get_cipherB5cxx11Ev
00000238	000599A0	0237	00087B0A	_ZNK2fz9tls_layer12get_hostnameB5cxx11Ev
00000239	000599F0	0238	00087B33	_ZNK2fz9tls_layer12get_protocolB5cxx11Ev
0000023A	00059A10	0239	00087B5C	_ZNK2fz9tls_layer15resumed_sessionEv
0000023B	00059A20	023A	00087B81	_ZNK2fz9tls_layer16get_key_exchangeB5cxx11Ev
0000023C	00059A40	023B	00087BAE	_ZNK2fz9tls_layer19get_raw_certificateEv
0000023D	00059A60	023C	00087BD7	_ZNK2fz9tls_layer22get_algorithm_warningsEv
0000023E	00059A70	023D	00087C03	_ZNK2fz9tls_layer22get_session_parametersEv
0000023F	00059A90	023E	00087C2F	_ZNK2fz9tls_layer7get_macB5cxx11Ev
00000240	00059AB0	023F	00087C52	_ZNK2fz9tls_layer8get_alpnB5cxx11Ev
00000241	00059B00	0240	00087C76	_ZNK2fz9tls_layer9get_stateEv
00000242	00059B10	0241	00087C94	_ZNK2fz9tls_layer9is_serverEv
00000243	000708C0	0242	00087CB2	_ZTIN2fz10event_baseE
00000244	000708D0	0243	00087CC8	_ZTIN2fz11bucket_baseE
00000245	000708E0	0244	00087CDF	_ZTIN2fz11socket_baseE
00000246	00070900	0245	00087CF6	_ZTIN2fz12rate_limiterE
00000247	000709E0	0246	00087D0E	_ZTIN2fz12socket_layerE
00000248	00070A00	0247	00087D26	_ZTIN2fz13event_handlerE
00000249	00070A10	0248	00087D3F	_ZTIN2fz13listen_socketE
0000024A	00070A50	0249	00087D58	_ZTIN2fz14thread_invokerE
0000024B	00070A80	024A	00087D72	_ZTIN2fz16recursive_removeE
0000024C	00070A90	024B	00087D8E	_ZTIN2fz16socket_interfaceE
0000024D	00070B10	024C	00087DAA	_ZTIN2fz18rate_limit_managerE
0000024E	00070B30	024D	00087DC8	_ZTIN2fz18rate_limited_layerE
0000024F	00070B70	024E	00087DE6	_ZTIN2fz19socket_event_sourceE
00000250	00070C40	024F	00087E05	_ZTIN2fz27compound_rate_limited_layerE
00000251	00070C70	0250	00087E2C	_ZTIN2fz6bucketE
00000252	00070C90	0251	00087E3D	_ZTIN2fz6socketE
00000253	00070CF0	0252	00087E4E	_ZTIN2fz9tls_layerE
00000254	00071C20	0253	00087E62	_ZTVN2fz10event_baseE
00000255	00071C50	0254	00087E78	_ZTVN2fz11bucket_baseE
00000256	00071CC0	0255	00087E8F	_ZTVN2fz11socket_baseE
00000257	00071D00	0256	00087EA6	_ZTVN2fz12rate_limiterE
00000258	00071E90	0257	00087EBE	_ZTVN2fz12socket_layerE
00000259	00071F00	0258	00087ED6	_ZTVN2fz13event_handlerE
0000025A	00071F30	0259	00087EEF	_ZTVN2fz13listen_socketE
0000025B	00071F70	025A	00087F08	_ZTVN2fz14thread_invokerE
0000025C	00071FA0	025B	00087F22	_ZTVN2fz16recursive_removeE
0000025D	00071FD0	025C	00087F3E	_ZTVN2fz16socket_interfaceE
0000025E	00072070	025D	00087F5A	_ZTVN2fz18rate_limit_managerE
0000025F	000720A0	025E	00087F78	_ZTVN2fz18rate_limited_layerE
00000260	00072190	025F	00087F96	_ZTVN2fz19socket_event_sourceE
00000261	00072330	0260	00087FB5	_ZTVN2fz27compound_rate_limited_layerE
00000262	000723A0	0261	00087FDC	_ZTVN2fz6bucketE
00000263	00072420	0262	00087FED	_ZTVN2fz6socketE
00000264	00072510	0263	00087FFE	_ZTVN2fz9tls_layerE
00000265	00066EF0	0264	00088012	_ZThn24_N2fz9tls_layer13shutdown_readEv
00000266	00066F00	0265	0008803A	_ZThn24_N2fz9tls_layer17set_event_handlerEPNS_13event_handlerENS_17socket_event_flagE
00000267	00066F10	0266	00088090	_ZThn24_N2fz9tls_layer4readEPvjRi
00000268	00066F20	0267	000880B2	_ZThn24_N2fz9tls_layer5writeEPKvjRi
00000269	00066F30	0268	000880D6	_ZThn24_N2fz9tls_layer7connectERKNSt7__cxx1112basic_stringIwSt11char_traitsIwESaIwEEEjNS_12address_typeE
0000026A	00066F40	0269	0008813F	_ZThn24_N2fz9tls_layer8shutdownEv
0000026B	00066F50	026A	00088161	_ZThn24_N2fz9tls_layerD0Ev
0000026C	00066FD0	026B	0008817C	_ZThn24_N2fz9tls_layerD1Ev
0000026D	00067040	026C	00088197	_ZThn24_NK2fz9tls_layer9get_stateEv
0000026E	00067050	026D	000881BB	_ZThn40_N2fz18rate_limited_layer6wakeupENS_9direction4typeE
0000026F	00067060	026E	000881F7	_ZThn40_N2fz18rate_limited_layerD0Ev
00000270	000670C0	026F	0008821C	_ZThn40_N2fz18rate_limited_layerD1Ev
00000271	000670D0	0270	00088241	_ZThn64_N2fz13listen_socketD0Ev
00000272	00067100	0271	00088261	_ZThn64_N2fz13listen_socketD1Ev
00000273	00067110	0272	00088281	_ZThn64_N2fz6socket13shutdown_readEv
00000274	00067120	0273	000882A6	_ZThn64_N2fz6socket17set_event_handlerEPNS_13event_handlerENS_17socket_event_flagE
00000275	00067130	0274	000882F9	_ZThn64_N2fz6socket4readEPvjRi
00000276	00067140	0275	00088318	_ZThn64_N2fz6socket5writeEPKvjRi
00000277	00067150	0276	00088339	_ZThn64_N2fz6socket7connectERKNSt7__cxx1112basic_stringIwSt11char_traitsIwESaIwEEEjNS_12address_typeE
00000278	00067160	0277	0008839F	_ZThn64_N2fz6socket8shutdownEv
00000279	00067170	0278	000883BE	_ZThn64_N2fz6socketD0Ev
0000027A	000671A0	0279	000883D6	_ZThn64_N2fz6socketD1Ev
0000027B	000671B0	027A	000883EE	_ZThn64_NK2fz6socket9get_stateEv
0000027C	000671F0	027B	0008840F	_ZThn64_NK2fz6socket9peer_hostB5cxx11Ev
0000027D	000672C0	027C	00088437	_ZThn64_NK2fz6socket9peer_portERi